target datalayout = "e-m:e-p270:32:32-p271:32:32-p272:64:64-i64:64-i128:128-f80:128-n8:16:32:64-S128"
target triple = "x86_64-pc-linux-gnu"

%struct.strbuf = type { i64, i64, ptr }

@__const.http_get_file.tmpfile = private unnamed_addr constant %struct.strbuf { i64 0, i64 0, ptr @strbuf_slopbuf }, align 8
@.str.39 = private unnamed_addr constant [8 x i8] c"%s.temp\00", align 1
@.str.40 = private unnamed_addr constant [2 x i8] c"a\00", align 1
@.str.41 = private unnamed_addr constant [29 x i8] c"Unable to open local file %s\00", align 1

; Function Attrs: inlinehint nounwind uwtable
define internal i32 @const_error() #5 {
  ret i32 -1
}

; Function Attrs: nounwind uwtable
define dso_local i32 @http_get_file(ptr noundef %0, ptr noundef %1, ptr noundef %2) #0 {
  %4 = alloca ptr, align 8
  %5 = alloca ptr, align 8
  %6 = alloca ptr, align 8
  %7 = alloca i32, align 4
  %8 = alloca %struct.strbuf, align 8
  %9 = alloca ptr, align 8
  store ptr %0, ptr %4, align 8, !tbaa !4
  store ptr %1, ptr %5, align 8, !tbaa !4
  store ptr %2, ptr %6, align 8, !tbaa !149
  call void @llvm.lifetime.start.p0(i64 4, ptr %7) #11
  call void @llvm.lifetime.start.p0(i64 24, ptr %8) #11
  call void @llvm.memcpy.p0.p0.i64(ptr align 8 %8, ptr align 8 @__const.http_get_file.tmpfile, i64 24, i1 false)
  call void @llvm.lifetime.start.p0(i64 8, ptr %9) #11
  %10 = load ptr, ptr %5, align 8, !tbaa !4
  call void (ptr, ptr, ...) @strbuf_addf(ptr noundef %8, ptr noundef @.str.39, ptr noundef %10)
  %11 = getelementptr inbounds nuw %struct.strbuf, ptr %8, i32 0, i32 2
  %12 = load ptr, ptr %11, align 8, !tbaa !35
  %13 = call ptr @git_fopen(ptr noundef %12, ptr noundef @.str.40)
  store ptr %13, ptr %9, align 8, !tbaa !111
  %14 = load ptr, ptr %9, align 8, !tbaa !111
  %15 = icmp ne ptr %14, null
  br i1 %15, label %21, label %16

16:                                               ; preds = %3
  %17 = getelementptr inbounds nuw %struct.strbuf, ptr %8, i32 0, i32 2
  %18 = load ptr, ptr %17, align 8, !tbaa !35
  %19 = call i32 (ptr, ...) @error(ptr noundef @.str.41, ptr noundef %18)
  %20 = call i32 @const_error()
  store i32 2, ptr %7, align 4, !tbaa !19
  br label %38

21:                                               ; preds = %3
  %22 = load ptr, ptr %4, align 8, !tbaa !4
  %23 = load ptr, ptr %9, align 8, !tbaa !111
  %24 = load ptr, ptr %6, align 8, !tbaa !149
  %25 = call i32 @http_request_reauth(ptr noundef %22, ptr noundef %23, i32 noundef 1, ptr noundef %24)
  store i32 %25, ptr %7, align 4, !tbaa !19
  %26 = load ptr, ptr %9, align 8, !tbaa !111
  %27 = call i32 @fclose(ptr noundef %26)
  %28 = load i32, ptr %7, align 4, !tbaa !19
  %29 = icmp eq i32 %28, 0
  br i1 %29, label %30, label %37

30:                                               ; preds = %21
  %31 = getelementptr inbounds nuw %struct.strbuf, ptr %8, i32 0, i32 2
  %32 = load ptr, ptr %31, align 8, !tbaa !35
  %33 = load ptr, ptr %5, align 8, !tbaa !4
  %34 = call i32 @finalize_object_file(ptr noundef %32, ptr noundef %33)
  %35 = icmp ne i32 %34, 0
  br i1 %35, label %36, label %37

36:                                               ; preds = %30
  store i32 2, ptr %7, align 4, !tbaa !19
  br label %37

37:                                               ; preds = %36, %30, %21
  br label %38

38:                                               ; preds = %37, %16
  call void @strbuf_release(ptr noundef %8)
  %39 = load i32, ptr %7, align 4, !tbaa !19
  call void @llvm.lifetime.end.p0(i64 8, ptr %9) #11
  call void @llvm.lifetime.end.p0(i64 24, ptr %8) #11
  call void @llvm.lifetime.end.p0(i64 4, ptr %7) #11
  ret i32 %39
}