; Function Attrs: nounwind uwtable
define dso_local range(i32 0, 7) i32 @http_get_file(ptr noundef %0, ptr noundef %1, ptr noundef %2) local_unnamed_addr #3 {
  %4 = alloca %struct.strbuf, align 8
  call void @llvm.lifetime.start.p0(i64 24, ptr nonnull %4) #22
  call void @llvm.memcpy.p0.p0.i64(ptr noundef nonnull align 8 dereferenceable(24) %4, ptr noundef nonnull align 8 dereferenceable(24) @__const.fetch_pack_index.buf, i64 24, i1 false)
  call void (ptr, ptr, ...) @strbuf_addf(ptr noundef nonnull %4, ptr noundef nonnull @.str.39, ptr noundef %1) #22
  %5 = getelementptr inbounds nuw i8, ptr %4, i64 16
  %6 = load ptr, ptr %5, align 8, !tbaa !23
  %7 = call ptr @git_fopen(ptr noundef %6, ptr noundef nonnull @.str.40) #22
  %.not = icmp eq ptr %7, null
  br i1 %.not, label %8, label %11

8:                                                ; preds = %3
  %9 = load ptr, ptr %5, align 8, !tbaa !23
  %10 = call i32 (ptr, ...) @error(ptr noundef nonnull @.str.41, ptr noundef %9) #22
  br label %18

11:                                               ; preds = %3
  %12 = call fastcc i32 @http_request_reauth(ptr noundef %0, ptr noundef nonnull %7, i32 noundef 1, ptr noundef %2)
  %13 = call i32 @fclose(ptr noundef nonnull %7)
  %14 = icmp eq i32 %12, 0
  br i1 %14, label %15, label %18

15:                                               ; preds = %11
  %16 = load ptr, ptr %5, align 8, !tbaa !23
  %17 = call i32 @finalize_object_file(ptr noundef %16, ptr noundef %1) #22
  %.not10 = icmp eq i32 %17, 0
  %spec.select = select i1 %.not10, i32 0, i32 2
  br label %18

18:                                               ; preds = %15, %11, %8
  %.0 = phi i32 [ %12, %11 ], [ 2, %8 ], [ %spec.select, %15 ]
  call void @strbuf_release(ptr noundef nonnull %4) #22
  call void @llvm.lifetime.end.p0(i64 24, ptr nonnull %4) #22
  ret i32 %.0
}